target datalayout = "e-m:e-p270:32:32-p271:32:32-p272:64:64-i64:64-i128:128-f80:128-n8:16:32:64-S128"
target triple = "x86_64-pc-linux-gnu"

%"class.testing::internal::TestEventRepeater" = type { %"class.testing::TestEventListener", i8, %"class.std::vector.55" }
%"class.testing::TestEventListener" = type { ptr }
%"class.std::vector.55" = type { %"struct.std::_Vector_base.56" }
%"struct.std::_Vector_base.56" = type { %"struct.std::_Vector_base<testing::TestEventListener *, std::allocator<testing::TestEventListener *>>::_Vector_impl" }
%"struct.std::_Vector_base<testing::TestEventListener *, std::allocator<testing::TestEventListener *>>::_Vector_impl" = type { %"struct.std::_Vector_base<testing::TestEventListener *, std::allocator<testing::TestEventListener *>>::_Vector_impl_data" }
%"struct.std::_Vector_base<testing::TestEventListener *, std::allocator<testing::TestEventListener *>>::_Vector_impl_data" = type { ptr, ptr, ptr }

; Function Attrs: mustprogress nounwind uwtable
define linkonce_odr hidden noundef nonnull align 8 dereferenceable(8) ptr @_ZNSt6vectorIPN7testing17TestEventListenerESaIS2_EEixEm(ptr noundef nonnull align 8 dereferenceable(24) %0, i64 noundef %1) #6 comdat align 2 {
  %3 = alloca ptr, align 8
  %4 = alloca i64, align 8
  store ptr %0, ptr %3, align 8
  store i64 %1, ptr %4, align 8
  %5 = load ptr, ptr %3, align 8
  %6 = getelementptr inbounds nuw %"struct.std::_Vector_base.56", ptr %5, i32 0, i32 0
  %7 = getelementptr inbounds nuw %"struct.std::_Vector_base<testing::TestEventListener *, std::allocator<testing::TestEventListener *>>::_Vector_impl_data", ptr %6, i32 0, i32 0
  %8 = load ptr, ptr %7, align 8
  %9 = load i64, ptr %4, align 8
  %10 = getelementptr inbounds nuw ptr, ptr %8, i64 %9
  ret ptr %10
}

; Function Attrs: mustprogress nounwind uwtable
define linkonce_odr hidden noundef i64 @_ZNKSt6vectorIPN7testing17TestEventListenerESaIS2_EE4sizeEv(ptr noundef nonnull align 8 dereferenceable(24) %0) #6 comdat align 2 {
  %2 = alloca ptr, align 8
  store ptr %0, ptr %2, align 8
  %3 = load ptr, ptr %2, align 8
  %4 = getelementptr inbounds nuw %"struct.std::_Vector_base.56", ptr %3, i32 0, i32 0
  %5 = getelementptr inbounds nuw %"struct.std::_Vector_base<testing::TestEventListener *, std::allocator<testing::TestEventListener *>>::_Vector_impl_data", ptr %4, i32 0, i32 1
  %6 = load ptr, ptr %5, align 8
  %7 = getelementptr inbounds nuw %"struct.std::_Vector_base.56", ptr %3, i32 0, i32 0
  %8 = getelementptr inbounds nuw %"struct.std::_Vector_base<testing::TestEventListener *, std::allocator<testing::TestEventListener *>>::_Vector_impl_data", ptr %7, i32 0, i32 0
  %9 = load ptr, ptr %8, align 8
  %10 = ptrtoint ptr %6 to i64
  %11 = ptrtoint ptr %9 to i64
  %12 = sub i64 %10, %11
  %13 = sdiv exact i64 %12, 8
  ret i64 %13
}

; Function Attrs: mustprogress uwtable
define hidden void @_ZN7testing8internal17TestEventRepeater13OnTestCaseEndERKNS_8TestCaseE(ptr noundef nonnull align 8 dereferenceable(40) %0, ptr noundef nonnull align 8 dereferenceable(200) %1) unnamed_addr #4 align 2 {
  %3 = alloca ptr, align 8
  %4 = alloca ptr, align 8
  %5 = alloca i32, align 4
  store ptr %0, ptr %3, align 8
  store ptr %1, ptr %4, align 8
  %6 = load ptr, ptr %3, align 8
  %7 = getelementptr inbounds nuw %"class.testing::internal::TestEventRepeater", ptr %6, i32 0, i32 1
  %8 = load i8, ptr %7, align 8, !range !5, !noundef !6
  %9 = trunc i8 %8 to i1
  br i1 %9, label %10, label %33

10:                                               ; preds = %2
  call void @llvm.lifetime.start.p0(i64 4, ptr %5) #3
  %11 = getelementptr inbounds nuw %"class.testing::internal::TestEventRepeater", ptr %6, i32 0, i32 2
  %12 = call noundef i64 @_ZNKSt6vectorIPN7testing17TestEventListenerESaIS2_EE4sizeEv(ptr noundef nonnull align 8 dereferenceable(24) %11) #3
  %13 = trunc i64 %12 to i32
  %14 = sub nsw i32 %13, 1
  store i32 %14, ptr %5, align 4
  br label %15

15:                                               ; preds = %29, %10
  %16 = load i32, ptr %5, align 4
  %17 = icmp sge i32 %16, 0
  br i1 %17, label %19, label %18

18:                                               ; preds = %15
  call void @llvm.lifetime.end.p0(i64 4, ptr %5) #3
  br label %32

19:                                               ; preds = %15
  %20 = getelementptr inbounds nuw %"class.testing::internal::TestEventRepeater", ptr %6, i32 0, i32 2
  %21 = load i32, ptr %5, align 4
  %22 = sext i32 %21 to i64
  %23 = call noundef nonnull align 8 dereferenceable(8) ptr @_ZNSt6vectorIPN7testing17TestEventListenerESaIS2_EEixEm(ptr noundef nonnull align 8 dereferenceable(24) %20, i64 noundef %22) #3
  %24 = load ptr, ptr %23, align 8
  %25 = load ptr, ptr %4, align 8
  %26 = load ptr, ptr %24, align 8
  %27 = getelementptr inbounds ptr, ptr %26, i64 10
  %28 = load ptr, ptr %27, align 8
  call void %28(ptr noundef nonnull align 8 dereferenceable(8) %24, ptr noundef nonnull align 8 dereferenceable(200) %25)
  br label %29

29:                                               ; preds = %19
  %30 = load i32, ptr %5, align 4
  %31 = add nsw i32 %30, -1
  store i32 %31, ptr %5, align 4
  br label %15, !llvm.loop !38

32:                                               ; preds = %18
  br label %33

33:                                               ; preds = %32, %2
  ret void
}